target datalayout = "e-m:e-p270:32:32-p271:32:32-p272:64:64-i64:64-i128:128-f80:128-n8:16:32:64-S128"
target triple = "x86_64-pc-linux-gnu"

%"class.Luau::CstNode" = type { i32 }
%"struct.Luau::AstArray.0" = type { ptr, i64 }
%"class.std::optional" = type { %"struct.std::_Optional_base" }
%"struct.std::_Optional_base" = type { %"struct.std::_Optional_payload" }
%"struct.std::_Optional_payload" = type { %"struct.std::_Optional_payload_base.base", [3 x i8] }
%"struct.std::_Optional_payload_base.base" = type <{ %"union.std::_Optional_payload_base<Luau::Position>::_Storage", i8 }>
%"union.std::_Optional_payload_base<Luau::Position>::_Storage" = type { %"struct.Luau::Position" }
%"struct.Luau::Position" = type { i32, i32 }
%"class.Luau::CstExprCall" = type { %"class.Luau::CstNode", %"class.std::optional", %"class.std::optional", %"struct.Luau::AstArray.0" }

@_ZN4Luau7CstRttiINS_11CstExprCallEE5valueE = linkonce_odr dso_local global i32 0, comdat, align 4

; Function Attrs: mustprogress nounwind uwtable
define linkonce_odr dso_local void @_ZN4Luau7CstNodeC2Ei(ptr noundef nonnull align 4 dereferenceable(4) %0, i32 noundef %1) unnamed_addr #3 comdat align 2 {
  %3 = alloca ptr, align 8
  %4 = alloca i32, align 4
  store ptr %0, ptr %3, align 8, !tbaa !18
  store i32 %1, ptr %4, align 4, !tbaa !4
  %5 = load ptr, ptr %3, align 8
  %6 = getelementptr inbounds nuw %"class.Luau::CstNode", ptr %5, i32 0, i32 0
  %7 = load i32, ptr %4, align 4, !tbaa !4
  store i32 %7, ptr %6, align 4, !tbaa !20
  ret void
}

; Function Attrs: mustprogress nounwind uwtable
define linkonce_odr dso_local noundef i32 @_ZN4Luau11CstExprCall13CstClassIndexEv() #3 comdat align 2 {
  %1 = load i32, ptr @_ZN4Luau7CstRttiINS_11CstExprCallEE5valueE, align 4, !tbaa !4
  ret i32 %1
}

; Function Attrs: mustprogress uwtable
define dso_local void @_ZN4Luau11CstExprCallC2ESt8optionalINS_8PositionEES3_NS_8AstArrayIS2_EE(ptr noundef nonnull align 8 dereferenceable(48) %0, i64 %1, i8 %2, i64 %3, i8 %4, ptr noundef byval(%"struct.Luau::AstArray.0") align 8 %5) unnamed_addr #2 align 2 {
  %7 = alloca %"class.std::optional", align 4
  %8 = alloca { i64, i8 }, align 4
  %9 = alloca %"class.std::optional", align 4
  %10 = alloca { i64, i8 }, align 4
  %11 = alloca ptr, align 8
  %12 = getelementptr inbounds nuw { i64, i8 }, ptr %8, i32 0, i32 0
  store i64 %1, ptr %12, align 4
  %13 = getelementptr inbounds nuw { i64, i8 }, ptr %8, i32 0, i32 1
  store i8 %2, ptr %13, align 4
  call void @llvm.memcpy.p0.p0.i64(ptr align 4 %7, ptr align 4 %8, i64 12, i1 false)
  %14 = getelementptr inbounds nuw { i64, i8 }, ptr %10, i32 0, i32 0
  store i64 %3, ptr %14, align 4
  %15 = getelementptr inbounds nuw { i64, i8 }, ptr %10, i32 0, i32 1
  store i8 %4, ptr %15, align 4
  call void @llvm.memcpy.p0.p0.i64(ptr align 4 %9, ptr align 4 %10, i64 12, i1 false)
  store ptr %0, ptr %11, align 8, !tbaa !30
  %16 = load ptr, ptr %11, align 8
  %17 = call noundef i32 @_ZN4Luau11CstExprCall13CstClassIndexEv()
  call void @_ZN4Luau7CstNodeC2Ei(ptr noundef nonnull align 4 dereferenceable(4) %16, i32 noundef %17)
  %18 = getelementptr inbounds nuw %"class.Luau::CstExprCall", ptr %16, i32 0, i32 1
  call void @llvm.memcpy.p0.p0.i64(ptr align 4 %18, ptr align 4 %7, i64 12, i1 false)
  %19 = getelementptr inbounds nuw %"class.Luau::CstExprCall", ptr %16, i32 0, i32 2
  call void @llvm.memcpy.p0.p0.i64(ptr align 8 %19, ptr align 4 %9, i64 12, i1 false)
  %20 = getelementptr inbounds nuw %"class.Luau::CstExprCall", ptr %16, i32 0, i32 3
  call void @llvm.memcpy.p0.p0.i64(ptr align 8 %20, ptr align 8 %5, i64 16, i1 false), !tbaa.struct !32
  ret void
}