; Function Attrs: mustprogress nofree norecurse nosync nounwind willreturn memory(read, argmem: readwrite, inaccessiblemem: none) uwtable
define dso_local void @_ZN4Luau11CstExprCallC2ESt8optionalINS_8PositionEES3_NS_8AstArrayIS2_EE(ptr noundef nonnull writeonly align 8 captures(none) dereferenceable(48) initializes((0, 13), (16, 25), (32, 48)) %0, i64 %1, i8 %2, i64 %3, i8 %4, ptr noundef readonly byval(%"struct.Luau::AstArray.0") align 8 captures(none) %5) unnamed_addr #2 align 2 {
  %7 = load i32, ptr @_ZN4Luau7CstRttiINS_11CstExprCallEE5valueE, align 4, !tbaa !4
  store i32 %7, ptr %0, align 8, !tbaa !8
  %8 = getelementptr inbounds nuw i8, ptr %0, i64 4
  store i64 %1, ptr %8, align 4
  %.sroa.28.0..sroa_idx = getelementptr inbounds nuw i8, ptr %0, i64 12
  store i8 %2, ptr %.sroa.28.0..sroa_idx, align 4
  %9 = getelementptr inbounds nuw i8, ptr %0, i64 16
  store i64 %3, ptr %9, align 8
  %.sroa.22.0..sroa_idx = getelementptr inbounds nuw i8, ptr %0, i64 24
  store i8 %4, ptr %.sroa.22.0..sroa_idx, align 8
  %10 = getelementptr inbounds nuw i8, ptr %0, i64 32
  call void @llvm.memcpy.p0.p0.i64(ptr noundef nonnull align 8 dereferenceable(16) %10, ptr noundef nonnull align 8 dereferenceable(16) %5, i64 16, i1 false), !tbaa.struct !21
  ret void
}